; Function Attrs: nounwind uwtable
define ptr @initialize_Lean_Util_MonadBacktrack(i8 noundef zeroext %0, ptr noundef readnone captures(none) %1) local_unnamed_addr #0 {
  %.b8 = load i1, ptr @_G_initialized, align 1
  br i1 %.b8, label %3, label %7

3:                                                ; preds = %2
  tail call void @lean_inc_heartbeat() #3
  %4 = tail call noalias ptr @mi_malloc_small(i64 noundef 24) #3
  %5 = icmp eq ptr %4, null
  br i1 %5, label %6, label %.sink.split

6:                                                ; preds = %3
  tail call void @lean_internal_panic_out_of_memory() #4
  unreachable

7:                                                ; preds = %2
  store i1 true, ptr @_G_initialized, align 1
  %8 = tail call ptr @initialize_Init_Control_Except(i8 noundef zeroext %0, ptr noundef nonnull inttoptr (i64 1 to ptr)) #3
  %9 = getelementptr i8, ptr %8, i64 4
  %.val = load i32, ptr %9, align 4
  %.mask.i = and i32 %.val, -16777216
  %10 = icmp eq i32 %.mask.i, 16777216
  br i1 %10, label %54, label %11

11:                                               ; preds = %7
  %12 = load i32, ptr %8, align 4, !tbaa !8
  %13 = icmp sgt i32 %12, 1
  br i1 %13, label %14, label %16, !prof !11

14:                                               ; preds = %11
  %15 = add nsw i32 %12, -1
  store i32 %15, ptr %8, align 4, !tbaa !8
  br label %lean_dec_ref.exit

16:                                               ; preds = %11
  %.not.i = icmp eq i32 %12, 0
  br i1 %.not.i, label %lean_dec_ref.exit, label %17

17:                                               ; preds = %16
  tail call void @lean_dec_ref_cold(ptr noundef nonnull %8) #3
  br label %lean_dec_ref.exit

lean_dec_ref.exit:                                ; preds = %14, %16, %17
  %18 = tail call ptr @initialize_Init_Data_Option_Coe(i8 noundef zeroext %0, ptr noundef nonnull inttoptr (i64 1 to ptr)) #3
  %19 = getelementptr i8, ptr %18, i64 4
  %.val11 = load i32, ptr %19, align 4
  %.mask.i12 = and i32 %.val11, -16777216
  %20 = icmp eq i32 %.mask.i12, 16777216
  br i1 %20, label %54, label %21

21:                                               ; preds = %lean_dec_ref.exit
  %22 = load i32, ptr %18, align 4, !tbaa !8
  %23 = icmp sgt i32 %22, 1
  br i1 %23, label %24, label %26, !prof !11

24:                                               ; preds = %21
  %25 = add nsw i32 %22, -1
  store i32 %25, ptr %18, align 4, !tbaa !8
  br label %lean_dec_ref.exit10

26:                                               ; preds = %21
  %.not.i9 = icmp eq i32 %22, 0
  br i1 %.not.i9, label %lean_dec_ref.exit10, label %27

27:                                               ; preds = %26
  tail call void @lean_dec_ref_cold(ptr noundef nonnull %18) #3
  br label %lean_dec_ref.exit10

lean_dec_ref.exit10:                              ; preds = %24, %26, %27
  tail call void @lean_inc_heartbeat() #3
  %28 = tail call noalias ptr @mi_malloc_small(i64 noundef 24) #3
  %29 = icmp eq ptr %28, null
  br i1 %29, label %30, label %_init_l_Lean_commitWhenSome_x3f___rarg___lambda__1___closed__1.exit

30:                                               ; preds = %lean_dec_ref.exit10
  tail call void @lean_internal_panic_out_of_memory() #4
  unreachable

_init_l_Lean_commitWhenSome_x3f___rarg___lambda__1___closed__1.exit: ; preds = %lean_dec_ref.exit10
  %31 = getelementptr inbounds nuw i8, ptr %28, i64 4
  store i32 1, ptr %28, align 4, !tbaa !8
  store i32 16908312, ptr %31, align 4
  %32 = getelementptr inbounds nuw i8, ptr %28, i64 8
  store ptr inttoptr (i64 1 to ptr), ptr %32, align 8, !tbaa !4
  %33 = getelementptr inbounds nuw i8, ptr %28, i64 16
  store ptr inttoptr (i64 1 to ptr), ptr %33, align 8, !tbaa !4
  store ptr %28, ptr @l_Lean_commitWhenSome_x3f___rarg___lambda__1___closed__1, align 8, !tbaa !4
  tail call void @lean_mark_persistent(ptr noundef nonnull %28) #3
  tail call void @lean_inc_heartbeat() #3
  %34 = tail call noalias ptr @mi_malloc_small(i64 noundef 24) #3
  %35 = icmp eq ptr %34, null
  br i1 %35, label %36, label %_init_l_Lean_withoutModifyingState___rarg___lambda__3___closed__1.exit

36:                                               ; preds = %_init_l_Lean_commitWhenSome_x3f___rarg___lambda__1___closed__1.exit
  tail call void @lean_internal_panic_out_of_memory() #4
  unreachable

_init_l_Lean_withoutModifyingState___rarg___lambda__3___closed__1.exit: ; preds = %_init_l_Lean_commitWhenSome_x3f___rarg___lambda__1___closed__1.exit
  %37 = getelementptr inbounds nuw i8, ptr %34, i64 4
  store i32 1, ptr %34, align 4, !tbaa !8
  store i32 -184549352, ptr %37, align 4
  %38 = getelementptr inbounds nuw i8, ptr %34, i64 8
  store ptr @l_Lean_withoutModifyingState___rarg___lambda__2___boxed, ptr %38, align 8, !tbaa !4
  %39 = getelementptr inbounds nuw i8, ptr %34, i64 16
  store i16 1, ptr %39, align 8, !tbaa !12
  %40 = getelementptr inbounds nuw i8, ptr %34, i64 18
  store i16 0, ptr %40, align 2, !tbaa !12
  store ptr %34, ptr @l_Lean_withoutModifyingState___rarg___lambda__3___closed__1, align 8, !tbaa !4
  tail call void @lean_mark_persistent(ptr noundef nonnull %34) #3
  tail call void @lean_inc_heartbeat() #3
  %41 = tail call noalias ptr @mi_malloc_small(i64 noundef 24) #3
  %42 = icmp eq ptr %41, null
  br i1 %42, label %43, label %_init_l_Lean_instMonadBacktrackExceptTOfMonad___rarg___closed__1.exit

43:                                               ; preds = %_init_l_Lean_withoutModifyingState___rarg___lambda__3___closed__1.exit
  tail call void @lean_internal_panic_out_of_memory() #4
  unreachable

_init_l_Lean_instMonadBacktrackExceptTOfMonad___rarg___closed__1.exit: ; preds = %_init_l_Lean_withoutModifyingState___rarg___lambda__3___closed__1.exit
  %44 = getelementptr inbounds nuw i8, ptr %41, i64 4
  store i32 1, ptr %41, align 4, !tbaa !8
  store i32 -184549352, ptr %44, align 4
  %45 = getelementptr inbounds nuw i8, ptr %41, i64 8
  store ptr @l_Lean_instMonadBacktrackExceptTOfMonad___rarg___lambda__1, ptr %45, align 8, !tbaa !4
  %46 = getelementptr inbounds nuw i8, ptr %41, i64 16
  store i16 1, ptr %46, align 8, !tbaa !12
  %47 = getelementptr inbounds nuw i8, ptr %41, i64 18
  store i16 0, ptr %47, align 2, !tbaa !12
  store ptr %41, ptr @l_Lean_instMonadBacktrackExceptTOfMonad___rarg___closed__1, align 8, !tbaa !4
  tail call void @lean_mark_persistent(ptr noundef nonnull %41) #3
  tail call void @lean_inc_heartbeat() #3
  %48 = tail call noalias ptr @mi_malloc_small(i64 noundef 24) #3
  %49 = icmp eq ptr %48, null
  br i1 %49, label %50, label %.sink.split

50:                                               ; preds = %_init_l_Lean_instMonadBacktrackExceptTOfMonad___rarg___closed__1.exit
  tail call void @lean_internal_panic_out_of_memory() #4
  unreachable

.sink.split:                                      ; preds = %_init_l_Lean_instMonadBacktrackExceptTOfMonad___rarg___closed__1.exit, %3
  %.sink17 = phi ptr [ %4, %3 ], [ %48, %_init_l_Lean_instMonadBacktrackExceptTOfMonad___rarg___closed__1.exit ]
  %51 = getelementptr inbounds nuw i8, ptr %.sink17, i64 4
  store i32 1, ptr %.sink17, align 4, !tbaa !8
  store i32 131096, ptr %51, align 4
  %52 = getelementptr inbounds nuw i8, ptr %.sink17, i64 8
  store ptr inttoptr (i64 1 to ptr), ptr %52, align 8, !tbaa !4
  %53 = getelementptr inbounds nuw i8, ptr %.sink17, i64 16
  store ptr inttoptr (i64 1 to ptr), ptr %53, align 8, !tbaa !4
  br label %54

54:                                               ; preds = %.sink.split, %lean_dec_ref.exit, %7
  %.0 = phi ptr [ %8, %7 ], [ %18, %lean_dec_ref.exit ], [ %.sink17, %.sink.split ]
  ret ptr %.0
}